; Function Attrs: nounwind sspstrong uwtable
define internal void @vhost_user_gpu_get_config(ptr noundef %vdev, ptr noundef initializes((0, 16)) %config_data) #0 {
entry:
  %local_err = alloca ptr, align 8
  %call.i = tail call ptr @object_dynamic_cast_assert(ptr noundef %vdev, ptr noundef nonnull @.str, ptr noundef nonnull @.str.4, i32 noundef 39, ptr noundef nonnull @__func__.VHOST_USER_GPU) #7
  %call.i8 = tail call ptr @object_dynamic_cast_assert(ptr noundef %vdev, ptr noundef nonnull @.str.1, ptr noundef nonnull @.str.4, i32 noundef 30, ptr noundef nonnull @__func__.VIRTIO_GPU_BASE) #7
  store ptr null, ptr %local_err, align 8
  tail call void @llvm.memset.p0.i64(ptr noundef nonnull align 1 dereferenceable(16) %config_data, i8 0, i64 16, i1 false)
  %vhost = getelementptr inbounds nuw i8, ptr %call.i, i64 2928
  %0 = load ptr, ptr %vhost, align 16
  %dev = getelementptr inbounds nuw i8, ptr %0, i64 128
  %call2 = call i32 @vhost_dev_get_config(ptr noundef nonnull %dev, ptr noundef nonnull %config_data, i32 noundef 16, ptr noundef nonnull %local_err) #7
  %tobool.not = icmp eq i32 %call2, 0
  br i1 %tobool.not, label %if.end, label %if.then

if.then:                                          ; preds = %entry
  %1 = load ptr, ptr %local_err, align 8
  call void @error_report_err(ptr noundef %1) #7
  br label %return

if.end:                                           ; preds = %entry
  %virtio_config = getelementptr inbounds nuw i8, ptr %call.i8, i64 552
  %num_scanouts = getelementptr inbounds nuw i8, ptr %call.i8, i64 560
  %2 = load i32, ptr %num_scanouts, align 8
  %num_scanouts3 = getelementptr inbounds nuw i8, ptr %config_data, i64 8
  store i32 %2, ptr %num_scanouts3, align 4
  %3 = load i32, ptr %virtio_config, align 8
  store i32 %3, ptr %config_data, align 4
  %events_clear = getelementptr inbounds nuw i8, ptr %call.i8, i64 556
  %4 = load i32, ptr %events_clear, align 4
  %events_clear7 = getelementptr inbounds nuw i8, ptr %config_data, i64 4
  store i32 %4, ptr %events_clear7, align 4
  br label %return

return:                                           ; preds = %if.end, %if.then
  ret void
}